; Function Attrs: mustprogress uwtable
define void @grpc_slice_unref(ptr noundef readonly byval(%struct.grpc_slice) align 8 captures(none) %0) local_unnamed_addr #3 {
  %2 = load ptr, ptr %0, align 8, !tbaa !3
  %3 = icmp ugt ptr %2, inttoptr (i64 1 to ptr)
  br i1 %3, label %4, label %_ZN9grpc_core11CSliceUnrefERK10grpc_sliceNS_13DebugLocationE.exit

4:                                                ; preds = %1
  %5 = atomicrmw sub ptr %2, i64 1 acq_rel, align 8
  %6 = icmp eq i64 %5, 1
  br i1 %6, label %7, label %_ZN9grpc_core11CSliceUnrefERK10grpc_sliceNS_13DebugLocationE.exit

7:                                                ; preds = %4
  %8 = getelementptr inbounds nuw i8, ptr %2, i64 8
  %9 = load ptr, ptr %8, align 8, !tbaa !23
  tail call void %9(ptr noundef nonnull align 8 dereferenceable(16) %2)
  br label %_ZN9grpc_core11CSliceUnrefERK10grpc_sliceNS_13DebugLocationE.exit

_ZN9grpc_core11CSliceUnrefERK10grpc_sliceNS_13DebugLocationE.exit: ; preds = %1, %4, %7
  ret void
}